target datalayout = "e-m:e-p270:32:32-p271:32:32-p272:64:64-i64:64-i128:128-f80:128-n8:16:32:64-S128"
target triple = "x86_64-pc-linux-gnu"

%struct.H5O_stab_t = type { i64, i64 }
%struct.H5G_t = type { ptr, %struct.H5O_loc_t, %struct.H5G_name_t }
%struct.H5O_loc_t = type { ptr, i64, i8 }
%struct.H5G_name_t = type { ptr, ptr, i32 }

@.str = private unnamed_addr constant [101 x i8] c"generated/home/dtcxzyw/WorkSpace/Projects/compilers/llvm-opt-benchmark/bench/hdf5/hdf5/src/H5Gtest.c\00", align 1
@H5E_ARGS_g = external global i64, align 8
@H5E_BADTYPE_g = external global i64, align 8
@.str.1 = private unnamed_addr constant [12 x i8] c"not a group\00", align 1
@H5E_SYM_g = external global i64, align 8
@H5E_CANTSET_g = external global i64, align 8
@.str.2 = private unnamed_addr constant [22 x i8] c"can't set API context\00", align 1
@H5E_CANTINIT_g = external global i64, align 8
@.str.8 = private unnamed_addr constant [36 x i8] c"unable to read symbol table message\00", align 1
@H5E_CANTRESET_g = external global i64, align 8
@.str.10 = private unnamed_addr constant [24 x i8] c"can't reset API context\00", align 1
@__func__.H5G__lheap_size_test = private unnamed_addr constant [21 x i8] c"H5G__lheap_size_test\00", align 1
@H5E_CANTGETSIZE_g = external global i64, align 8
@.str.18 = private unnamed_addr constant [28 x i8] c"can't query local heap size\00", align 1

; Function Attrs: nounwind uwtable
define i32 @H5G__lheap_size_test(i64 noundef %0, ptr noundef %1) #0 {
  %3 = alloca i64, align 8
  %4 = alloca ptr, align 8
  %5 = alloca ptr, align 8
  %6 = alloca %struct.H5O_stab_t, align 8
  %7 = alloca i8, align 1
  %8 = alloca i32, align 4
  %9 = alloca i8, align 1
  store i64 %0, ptr %3, align 8
  store ptr %1, ptr %4, align 8
  store ptr null, ptr %5, align 8
  store i8 0, ptr %7, align 1
  store i32 0, ptr %8, align 4
  store i8 0, ptr %9, align 1
  %10 = load i64, ptr %3, align 8
  %11 = call ptr @H5VL_object_verify(i64 noundef %10, i32 noundef 2)
  store ptr %11, ptr %5, align 8
  %12 = icmp eq ptr null, %11
  br i1 %12, label %13, label %28

13:                                               ; preds = %2
  br label %14

14:                                               ; preds = %13
  br label %15

15:                                               ; preds = %14
  br label %16

16:                                               ; preds = %15
  %17 = load i64, ptr @H5E_ARGS_g, align 8
  %18 = load i64, ptr @H5E_BADTYPE_g, align 8
  %19 = call i32 (ptr, ptr, i32, i64, i64, ptr, ...) @H5E_printf_stack(ptr noundef @.str, ptr noundef @__func__.H5G__lheap_size_test, i32 noundef 506, i64 noundef %17, i64 noundef %18, ptr noundef @.str.1)
  br label %20

20:                                               ; preds = %16
  store i8 1, ptr %9, align 1
  %21 = load i8, ptr %9, align 1
  %22 = trunc i8 %21 to i1
  %23 = zext i1 %22 to i8
  store i8 %23, ptr %9, align 1
  br label %24

24:                                               ; preds = %20
  br label %25

25:                                               ; preds = %24
  store i32 -1, ptr %8, align 4
  br label %92

26:                                               ; No predecessors!
  br label %27

27:                                               ; preds = %26
  br label %28

28:                                               ; preds = %27, %2
  %29 = call i32 @H5CX_push()
  %30 = icmp slt i32 %29, 0
  br i1 %30, label %31, label %46

31:                                               ; preds = %28
  br label %32

32:                                               ; preds = %31
  br label %33

33:                                               ; preds = %32
  br label %34

34:                                               ; preds = %33
  %35 = load i64, ptr @H5E_SYM_g, align 8
  %36 = load i64, ptr @H5E_CANTSET_g, align 8
  %37 = call i32 (ptr, ptr, i32, i64, i64, ptr, ...) @H5E_printf_stack(ptr noundef @.str, ptr noundef @__func__.H5G__lheap_size_test, i32 noundef 510, i64 noundef %35, i64 noundef %36, ptr noundef @.str.2)
  br label %38

38:                                               ; preds = %34
  store i8 1, ptr %9, align 1
  %39 = load i8, ptr %9, align 1
  %40 = trunc i8 %39 to i1
  %41 = zext i1 %40 to i8
  store i8 %41, ptr %9, align 1
  br label %42

42:                                               ; preds = %38
  br label %43

43:                                               ; preds = %42
  store i32 -1, ptr %8, align 4
  br label %92

44:                                               ; No predecessors!
  br label %45

45:                                               ; preds = %44
  br label %46

46:                                               ; preds = %45, %28
  store i8 1, ptr %7, align 1
  %47 = load ptr, ptr %5, align 8
  %48 = getelementptr inbounds %struct.H5G_t, ptr %47, i32 0, i32 1
  %49 = call ptr @H5O_msg_read(ptr noundef %48, i32 noundef 17, ptr noundef %6)
  %50 = icmp eq ptr null, %49
  br i1 %50, label %51, label %66

51:                                               ; preds = %46
  br label %52

52:                                               ; preds = %51
  br label %53

53:                                               ; preds = %52
  br label %54

54:                                               ; preds = %53
  %55 = load i64, ptr @H5E_SYM_g, align 8
  %56 = load i64, ptr @H5E_CANTINIT_g, align 8
  %57 = call i32 (ptr, ptr, i32, i64, i64, ptr, ...) @H5E_printf_stack(ptr noundef @.str, ptr noundef @__func__.H5G__lheap_size_test, i32 noundef 515, i64 noundef %55, i64 noundef %56, ptr noundef @.str.8)
  br label %58

58:                                               ; preds = %54
  store i8 1, ptr %9, align 1
  %59 = load i8, ptr %9, align 1
  %60 = trunc i8 %59 to i1
  %61 = zext i1 %60 to i8
  store i8 %61, ptr %9, align 1
  br label %62

62:                                               ; preds = %58
  br label %63

63:                                               ; preds = %62
  store i32 -1, ptr %8, align 4
  br label %92

64:                                               ; No predecessors!
  br label %65

65:                                               ; preds = %64
  br label %66

66:                                               ; preds = %65, %46
  %67 = load ptr, ptr %5, align 8
  %68 = getelementptr inbounds %struct.H5G_t, ptr %67, i32 0, i32 1
  %69 = getelementptr inbounds %struct.H5O_loc_t, ptr %68, i32 0, i32 0
  %70 = load ptr, ptr %69, align 8
  %71 = getelementptr inbounds %struct.H5O_stab_t, ptr %6, i32 0, i32 1
  %72 = load i64, ptr %71, align 8
  %73 = load ptr, ptr %4, align 8
  %74 = call i32 @H5HL_get_size(ptr noundef %70, i64 noundef %72, ptr noundef %73)
  %75 = icmp slt i32 %74, 0
  br i1 %75, label %76, label %91

76:                                               ; preds = %66
  br label %77

77:                                               ; preds = %76
  br label %78

78:                                               ; preds = %77
  br label %79

79:                                               ; preds = %78
  %80 = load i64, ptr @H5E_SYM_g, align 8
  %81 = load i64, ptr @H5E_CANTGETSIZE_g, align 8
  %82 = call i32 (ptr, ptr, i32, i64, i64, ptr, ...) @H5E_printf_stack(ptr noundef @.str, ptr noundef @__func__.H5G__lheap_size_test, i32 noundef 519, i64 noundef %80, i64 noundef %81, ptr noundef @.str.18)
  br label %83

83:                                               ; preds = %79
  store i8 1, ptr %9, align 1
  %84 = load i8, ptr %9, align 1
  %85 = trunc i8 %84 to i1
  %86 = zext i1 %85 to i8
  store i8 %86, ptr %9, align 1
  br label %87

87:                                               ; preds = %83
  br label %88

88:                                               ; preds = %87
  store i32 -1, ptr %8, align 4
  br label %92

89:                                               ; No predecessors!
  br label %90

90:                                               ; preds = %89
  br label %91

91:                                               ; preds = %90, %66
  br label %92

92:                                               ; preds = %91, %88, %63, %43, %25
  %93 = load i8, ptr %7, align 1
  %94 = trunc i8 %93 to i1
  br i1 %94, label %95, label %111

95:                                               ; preds = %92
  %96 = call i32 @H5CX_pop(i1 noundef zeroext false)
  %97 = icmp slt i32 %96, 0
  br i1 %97, label %98, label %111

98:                                               ; preds = %95
  br label %99

99:                                               ; preds = %98
  br label %100

100:                                              ; preds = %99
  br label %101

101:                                              ; preds = %100
  %102 = load i64, ptr @H5E_SYM_g, align 8
  %103 = load i64, ptr @H5E_CANTRESET_g, align 8
  %104 = call i32 (ptr, ptr, i32, i64, i64, ptr, ...) @H5E_printf_stack(ptr noundef @.str, ptr noundef @__func__.H5G__lheap_size_test, i32 noundef 523, i64 noundef %102, i64 noundef %103, ptr noundef @.str.10)
  br label %105

105:                                              ; preds = %101
  store i8 1, ptr %9, align 1
  %106 = load i8, ptr %9, align 1
  %107 = trunc i8 %106 to i1
  %108 = zext i1 %107 to i8
  store i8 %108, ptr %9, align 1
  br label %109

109:                                              ; preds = %105
  store i32 -1, ptr %8, align 4
  br label %110

110:                                              ; preds = %109
  br label %111

111:                                              ; preds = %110, %95, %92
  %112 = load i32, ptr %8, align 4
  ret i32 %112
}