; Function Attrs: nounwind uwtable
define range(i32 -1, 1) i32 @H5G__lheap_size_test(i64 noundef %0, ptr noundef %1) local_unnamed_addr #0 {
  %3 = alloca %struct.H5O_stab_t, align 8
  %4 = tail call ptr @H5VL_object_verify(i64 noundef %0, i32 noundef 2) #4
  %5 = icmp eq ptr %4, null
  br i1 %5, label %6, label %10

6:                                                ; preds = %2
  %7 = load i64, ptr @H5E_ARGS_g, align 8
  %8 = load i64, ptr @H5E_BADTYPE_g, align 8
  %9 = tail call i32 (ptr, ptr, i32, i64, i64, ptr, ...) @H5E_printf_stack(ptr noundef nonnull @.str, ptr noundef nonnull @__func__.H5G__lheap_size_test, i32 noundef 506, i64 noundef %7, i64 noundef %8, ptr noundef nonnull @.str.1) #4
  br label %42

10:                                               ; preds = %2
  %11 = tail call i32 @H5CX_push() #4
  %12 = icmp slt i32 %11, 0
  br i1 %12, label %13, label %17

13:                                               ; preds = %10
  %14 = load i64, ptr @H5E_SYM_g, align 8
  %15 = load i64, ptr @H5E_CANTSET_g, align 8
  %16 = tail call i32 (ptr, ptr, i32, i64, i64, ptr, ...) @H5E_printf_stack(ptr noundef nonnull @.str, ptr noundef nonnull @__func__.H5G__lheap_size_test, i32 noundef 510, i64 noundef %14, i64 noundef %15, ptr noundef nonnull @.str.2) #4
  br label %42

17:                                               ; preds = %10
  %18 = getelementptr inbounds i8, ptr %4, i64 8
  %19 = call ptr @H5O_msg_read(ptr noundef nonnull %18, i32 noundef 17, ptr noundef nonnull %3) #4
  %20 = icmp eq ptr %19, null
  br i1 %20, label %21, label %25

21:                                               ; preds = %17
  %22 = load i64, ptr @H5E_SYM_g, align 8
  %23 = load i64, ptr @H5E_CANTINIT_g, align 8
  %24 = call i32 (ptr, ptr, i32, i64, i64, ptr, ...) @H5E_printf_stack(ptr noundef nonnull @.str, ptr noundef nonnull @__func__.H5G__lheap_size_test, i32 noundef 515, i64 noundef %22, i64 noundef %23, ptr noundef nonnull @.str.8) #4
  br label %35

25:                                               ; preds = %17
  %26 = load ptr, ptr %18, align 8
  %27 = getelementptr inbounds i8, ptr %3, i64 8
  %28 = load i64, ptr %27, align 8
  %29 = call i32 @H5HL_get_size(ptr noundef %26, i64 noundef %28, ptr noundef %1) #4
  %30 = icmp slt i32 %29, 0
  br i1 %30, label %31, label %35

31:                                               ; preds = %25
  %32 = load i64, ptr @H5E_SYM_g, align 8
  %33 = load i64, ptr @H5E_CANTGETSIZE_g, align 8
  %34 = call i32 (ptr, ptr, i32, i64, i64, ptr, ...) @H5E_printf_stack(ptr noundef nonnull @.str, ptr noundef nonnull @__func__.H5G__lheap_size_test, i32 noundef 519, i64 noundef %32, i64 noundef %33, ptr noundef nonnull @.str.18) #4
  br label %35

35:                                               ; preds = %21, %31, %25
  %.0.ph = phi i32 [ 0, %25 ], [ -1, %31 ], [ -1, %21 ]
  %36 = call i32 @H5CX_pop(i1 noundef zeroext false) #4
  %37 = icmp slt i32 %36, 0
  br i1 %37, label %38, label %42

38:                                               ; preds = %35
  %39 = load i64, ptr @H5E_SYM_g, align 8
  %40 = load i64, ptr @H5E_CANTRESET_g, align 8
  %41 = call i32 (ptr, ptr, i32, i64, i64, ptr, ...) @H5E_printf_stack(ptr noundef nonnull @.str, ptr noundef nonnull @__func__.H5G__lheap_size_test, i32 noundef 523, i64 noundef %39, i64 noundef %40, ptr noundef nonnull @.str.10) #4
  br label %42

42:                                               ; preds = %6, %13, %38, %35
  %.1 = phi i32 [ -1, %38 ], [ %.0.ph, %35 ], [ -1, %6 ], [ -1, %13 ]
  ret i32 %.1
}